target datalayout = "e-m:e-p270:32:32-p271:32:32-p272:64:64-i64:64-i128:128-f80:128-n8:16:32:64-S128"
target triple = "x86_64-unknown-linux-gnu"

%struct.NotifierList = type { %struct.anon }
%struct.anon = type { ptr }
%struct.Notifier = type { ptr, %struct.anon.0 }
%struct.anon.0 = type { ptr, ptr }

@machine_init_done_notifiers = internal global %struct.NotifierList zeroinitializer, align 8

; Function Attrs: nounwind sspstrong uwtable
define dso_local void @qemu_add_machine_init_done_notifier(ptr noundef %notify) #0 {
entry:
  %notify.addr = alloca ptr, align 8
  store ptr %notify, ptr %notify.addr, align 8
  %0 = load ptr, ptr %notify.addr, align 8
  call void @notifier_list_add(ptr noundef @machine_init_done_notifiers, ptr noundef %0)
  %call = call zeroext i1 @phase_check(i32 noundef 4)
  br i1 %call, label %if.then, label %if.end

if.then:                                          ; preds = %entry
  %1 = load ptr, ptr %notify.addr, align 8
  %notify1 = getelementptr inbounds %struct.Notifier, ptr %1, i32 0, i32 0
  %2 = load ptr, ptr %notify1, align 8
  %3 = load ptr, ptr %notify.addr, align 8
  call void %2(ptr noundef %3, ptr noundef null)
  br label %if.end

if.end:                                           ; preds = %if.then, %entry
  ret void
}