; Function Attrs: nounwind sspstrong uwtable
define dso_local void @qemu_add_machine_init_done_notifier(ptr noundef %notify) local_unnamed_addr #0 {
entry:
  tail call void @notifier_list_add(ptr noundef nonnull @machine_init_done_notifiers, ptr noundef %notify) #16
  %call = tail call zeroext i1 @phase_check(i32 noundef 4) #16
  br i1 %call, label %if.then, label %if.end

if.then:                                          ; preds = %entry
  %0 = load ptr, ptr %notify, align 8
  tail call void %0(ptr noundef nonnull %notify, ptr noundef null) #16
  br label %if.end

if.end:                                           ; preds = %if.then, %entry
  ret void
}